target datalayout = "e-m:e-p270:32:32-p271:32:32-p272:64:64-i64:64-i128:128-f80:128-n8:16:32:64-S128"
target triple = "x86_64-pc-linux-gnu"

%struct.DdManager = type { %struct.DdNode, ptr, ptr, ptr, ptr, ptr, ptr, ptr, i32, i32, double, double, double, i32, i32, i32, i32, i32, i32, ptr, ptr, %struct.DdSubtable, i32, i32, i32, i32, i32, i32, i32, double, i32, i32, i32, ptr, i64, double, i32, ptr, ptr, ptr, ptr, ptr, ptr, ptr, i32, ptr, ptr, ptr, ptr, ptr, ptr, i32, i32, i32, double, i32, i32, i32, i32, double, double, i32, i32, i32, i32, i32, i32, i32, i32, i32, ptr, ptr, i32, i32, i32, i32, i32, i32, ptr, ptr, ptr, ptr, ptr, ptr, ptr, ptr, i32, i64, i64, i64, i32, i64, i64, double, double, double, double, double, double, i32, ptr, ptr, i64 }
%struct.DdNode = type { i32, i32, ptr, %union.anon, i64 }
%union.anon = type { %struct.DdChildren }
%struct.DdChildren = type { ptr, ptr }
%struct.DdSubtable = type { ptr, i32, i32, i32, i32, i32, i32, i32, i32, i32, i32, i32 }

; Function Attrs: nounwind uwtable
define internal ptr @selectMintermsFromUniverse(ptr noundef %0, ptr noundef %1, double noundef %2) #0 {
  %4 = alloca ptr, align 8
  %5 = alloca ptr, align 8
  %6 = alloca ptr, align 8
  %7 = alloca double, align 8
  %8 = alloca i32, align 4
  %9 = alloca i32, align 4
  %10 = alloca i32, align 4
  %11 = alloca i32, align 4
  %12 = alloca ptr, align 8
  %13 = alloca ptr, align 8
  %14 = alloca ptr, align 8
  %15 = alloca ptr, align 8
  %16 = alloca i32, align 4
  store ptr %0, ptr %5, align 8, !tbaa !3
  store ptr %1, ptr %6, align 8, !tbaa !32
  store double %2, ptr %7, align 8, !tbaa !14
  call void @llvm.lifetime.start.p0(i64 4, ptr %8) #5
  call void @llvm.lifetime.start.p0(i64 4, ptr %9) #5
  call void @llvm.lifetime.start.p0(i64 4, ptr %10) #5
  call void @llvm.lifetime.start.p0(i64 4, ptr %11) #5
  call void @llvm.lifetime.start.p0(i64 8, ptr %12) #5
  call void @llvm.lifetime.start.p0(i64 8, ptr %13) #5
  call void @llvm.lifetime.start.p0(i64 8, ptr %14) #5
  call void @llvm.lifetime.start.p0(i64 8, ptr %15) #5
  store i32 0, ptr %8, align 4, !tbaa !12
  %17 = load ptr, ptr %5, align 8, !tbaa !3
  %18 = getelementptr inbounds nuw %struct.DdManager, ptr %17, i32 0, i32 15
  %19 = load i32, ptr %18, align 8, !tbaa !16
  store i32 %19, ptr %10, align 4, !tbaa !12
  %20 = load ptr, ptr %5, align 8, !tbaa !3
  %21 = getelementptr inbounds nuw %struct.DdManager, ptr %20, i32 0, i32 1
  %22 = load ptr, ptr %21, align 8, !tbaa !30
  store ptr %22, ptr %12, align 8, !tbaa !8
  %23 = load ptr, ptr %12, align 8, !tbaa !8
  %24 = ptrtoint ptr %23 to i64
  %25 = xor i64 %24, 1
  %26 = inttoptr i64 %25 to ptr
  store ptr %26, ptr %13, align 8, !tbaa !8
  %27 = load i32, ptr %10, align 4, !tbaa !12
  %28 = sub nsw i32 %27, 1
  store i32 %28, ptr %9, align 4, !tbaa !12
  br label %29

29:                                               ; preds = %43, %3
  %30 = load i32, ptr %9, align 4, !tbaa !12
  %31 = icmp sge i32 %30, 0
  br i1 %31, label %32, label %46

32:                                               ; preds = %29
  %33 = load ptr, ptr %6, align 8, !tbaa !32
  %34 = load i32, ptr %9, align 4, !tbaa !12
  %35 = sext i32 %34 to i64
  %36 = getelementptr inbounds i32, ptr %33, i64 %35
  %37 = load i32, ptr %36, align 4, !tbaa !12
  %38 = icmp eq i32 %37, 0
  br i1 %38, label %39, label %42

39:                                               ; preds = %32
  %40 = load i32, ptr %8, align 4, !tbaa !12
  %41 = add nsw i32 %40, 1
  store i32 %41, ptr %8, align 4, !tbaa !12
  br label %42

42:                                               ; preds = %39, %32
  br label %43

43:                                               ; preds = %42
  %44 = load i32, ptr %9, align 4, !tbaa !12
  %45 = add nsw i32 %44, -1
  store i32 %45, ptr %9, align 4, !tbaa !12
  br label %29, !llvm.loop !44

46:                                               ; preds = %29
  %47 = load i32, ptr %8, align 4, !tbaa !12
  %48 = sext i32 %47 to i64
  %49 = mul i64 8, %48
  %50 = call noalias ptr @malloc(i64 noundef %49) #6
  store ptr %50, ptr %15, align 8, !tbaa !10
  %51 = load ptr, ptr %15, align 8, !tbaa !10
  %52 = icmp ne ptr %51, null
  br i1 %52, label %56, label %53

53:                                               ; preds = %46
  %54 = load ptr, ptr %5, align 8, !tbaa !3
  %55 = getelementptr inbounds nuw %struct.DdManager, ptr %54, i32 0, i32 86
  store i32 1, ptr %55, align 8, !tbaa !33
  store ptr null, ptr %4, align 8
  store i32 1, ptr %16, align 4
  br label %141

56:                                               ; preds = %46
  store i32 0, ptr %11, align 4, !tbaa !12
  %57 = load i32, ptr %10, align 4, !tbaa !12
  %58 = sub nsw i32 %57, 1
  store i32 %58, ptr %9, align 4, !tbaa !12
  br label %59

59:                                               ; preds = %99, %56
  %60 = load i32, ptr %9, align 4, !tbaa !12
  %61 = icmp sge i32 %60, 0
  br i1 %61, label %62, label %102

62:                                               ; preds = %59
  %63 = load ptr, ptr %6, align 8, !tbaa !32
  %64 = load i32, ptr %9, align 4, !tbaa !12
  %65 = sext i32 %64 to i64
  %66 = getelementptr inbounds i32, ptr %63, i64 %65
  %67 = load i32, ptr %66, align 4, !tbaa !12
  %68 = icmp eq i32 %67, 0
  br i1 %68, label %69, label %98

69:                                               ; preds = %62
  %70 = load ptr, ptr %5, align 8, !tbaa !3
  %71 = load ptr, ptr %5, align 8, !tbaa !3
  %72 = getelementptr inbounds nuw %struct.DdManager, ptr %71, i32 0, i32 37
  %73 = load ptr, ptr %72, align 8, !tbaa !45
  %74 = load i32, ptr %9, align 4, !tbaa !12
  %75 = sext i32 %74 to i64
  %76 = getelementptr inbounds i32, ptr %73, i64 %75
  %77 = load i32, ptr %76, align 4, !tbaa !12
  %78 = load ptr, ptr %12, align 8, !tbaa !8
  %79 = load ptr, ptr %13, align 8, !tbaa !8
  %80 = call ptr @cuddUniqueInter(ptr noundef %70, i32 noundef %77, ptr noundef %78, ptr noundef %79)
  %81 = load ptr, ptr %15, align 8, !tbaa !10
  %82 = load i32, ptr %11, align 4, !tbaa !12
  %83 = sext i32 %82 to i64
  %84 = getelementptr inbounds ptr, ptr %81, i64 %83
  store ptr %80, ptr %84, align 8, !tbaa !8
  %85 = load ptr, ptr %15, align 8, !tbaa !10
  %86 = load i32, ptr %11, align 4, !tbaa !12
  %87 = sext i32 %86 to i64
  %88 = getelementptr inbounds ptr, ptr %85, i64 %87
  %89 = load ptr, ptr %88, align 8, !tbaa !8
  %90 = ptrtoint ptr %89 to i64
  %91 = and i64 %90, -2
  %92 = inttoptr i64 %91 to ptr
  %93 = getelementptr inbounds nuw %struct.DdNode, ptr %92, i32 0, i32 1
  %94 = load i32, ptr %93, align 4, !tbaa !39
  %95 = add i32 %94, 1
  store i32 %95, ptr %93, align 4, !tbaa !39
  %96 = load i32, ptr %11, align 4, !tbaa !12
  %97 = add nsw i32 %96, 1
  store i32 %97, ptr %11, align 4, !tbaa !12
  br label %98

98:                                               ; preds = %69, %62
  br label %99

99:                                               ; preds = %98
  %100 = load i32, ptr %9, align 4, !tbaa !12
  %101 = add nsw i32 %100, -1
  store i32 %101, ptr %9, align 4, !tbaa !12
  br label %59, !llvm.loop !46

102:                                              ; preds = %59
  %103 = load ptr, ptr %5, align 8, !tbaa !3
  %104 = load ptr, ptr %15, align 8, !tbaa !10
  %105 = load i32, ptr %8, align 4, !tbaa !12
  %106 = load double, ptr %7, align 8, !tbaa !14
  %107 = call ptr @mintermsFromUniverse(ptr noundef %103, ptr noundef %104, i32 noundef %105, double noundef %106, i32 noundef 0)
  store ptr %107, ptr %14, align 8, !tbaa !8
  %108 = load ptr, ptr %14, align 8, !tbaa !8
  %109 = icmp ne ptr %108, null
  br i1 %109, label %110, label %118

110:                                              ; preds = %102
  %111 = load ptr, ptr %14, align 8, !tbaa !8
  %112 = ptrtoint ptr %111 to i64
  %113 = and i64 %112, -2
  %114 = inttoptr i64 %113 to ptr
  %115 = getelementptr inbounds nuw %struct.DdNode, ptr %114, i32 0, i32 1
  %116 = load i32, ptr %115, align 4, !tbaa !39
  %117 = add i32 %116, 1
  store i32 %117, ptr %115, align 4, !tbaa !39
  br label %118

118:                                              ; preds = %110, %102
  store i32 0, ptr %9, align 4, !tbaa !12
  br label %119

119:                                              ; preds = %130, %118
  %120 = load i32, ptr %9, align 4, !tbaa !12
  %121 = load i32, ptr %8, align 4, !tbaa !12
  %122 = icmp slt i32 %120, %121
  br i1 %122, label %123, label %133

123:                                              ; preds = %119
  %124 = load ptr, ptr %5, align 8, !tbaa !3
  %125 = load ptr, ptr %15, align 8, !tbaa !10
  %126 = load i32, ptr %9, align 4, !tbaa !12
  %127 = sext i32 %126 to i64
  %128 = getelementptr inbounds ptr, ptr %125, i64 %127
  %129 = load ptr, ptr %128, align 8, !tbaa !8
  call void @Cudd_RecursiveDeref(ptr noundef %124, ptr noundef %129)
  br label %130

130:                                              ; preds = %123
  %131 = load i32, ptr %9, align 4, !tbaa !12
  %132 = add nsw i32 %131, 1
  store i32 %132, ptr %9, align 4, !tbaa !12
  br label %119, !llvm.loop !47

133:                                              ; preds = %119
  %134 = load ptr, ptr %15, align 8, !tbaa !10
  %135 = icmp ne ptr %134, null
  br i1 %135, label %136, label %138

136:                                              ; preds = %133
  %137 = load ptr, ptr %15, align 8, !tbaa !10
  call void @free(ptr noundef %137) #5
  store ptr null, ptr %15, align 8, !tbaa !10
  br label %139

138:                                              ; preds = %133
  br label %139

139:                                              ; preds = %138, %136
  %140 = load ptr, ptr %14, align 8, !tbaa !8
  store ptr %140, ptr %4, align 8
  store i32 1, ptr %16, align 4
  br label %141

141:                                              ; preds = %139, %53
  call void @llvm.lifetime.end.p0(i64 8, ptr %15) #5
  call void @llvm.lifetime.end.p0(i64 8, ptr %14) #5
  call void @llvm.lifetime.end.p0(i64 8, ptr %13) #5
  call void @llvm.lifetime.end.p0(i64 8, ptr %12) #5
  call void @llvm.lifetime.end.p0(i64 4, ptr %11) #5
  call void @llvm.lifetime.end.p0(i64 4, ptr %10) #5
  call void @llvm.lifetime.end.p0(i64 4, ptr %9) #5
  call void @llvm.lifetime.end.p0(i64 4, ptr %8) #5
  %142 = load ptr, ptr %4, align 8
  ret ptr %142
}